; Function Attrs: nounwind uwtable
define internal void @message_cb_wrapper(ptr noundef readonly captures(none) %0, ptr noundef %1, i64 noundef %2, i1 noundef zeroext %3, ptr noundef %4, i64 noundef %5, ptr noundef %6) #0 {
  %8 = alloca %struct.LogicalErrorCallbackState, align 8
  %9 = alloca %struct.ErrorContextCallback, align 8
  %10 = getelementptr inbounds nuw i8, ptr %0, i64 224
  %11 = load ptr, ptr %10, align 8
  call void @llvm.lifetime.start.p0(i64 24, ptr nonnull %8) #10
  call void @llvm.lifetime.start.p0(i64 24, ptr nonnull %9) #10
  %12 = getelementptr inbounds nuw i8, ptr %11, i64 88
  %13 = load ptr, ptr %12, align 8
  %14 = icmp eq ptr %13, null
  br i1 %14, label %31, label %15

15:                                               ; preds = %7
  store ptr %11, ptr %8, align 8
  %16 = getelementptr inbounds nuw i8, ptr %8, i64 8
  store ptr @.str.41, ptr %16, align 8
  %17 = getelementptr inbounds nuw i8, ptr %8, i64 16
  store i64 %2, ptr %17, align 8
  %18 = getelementptr inbounds nuw i8, ptr %9, i64 8
  store ptr @output_plugin_error_callback, ptr %18, align 8
  %19 = getelementptr inbounds nuw i8, ptr %9, i64 16
  store ptr %8, ptr %19, align 8
  %20 = load ptr, ptr @error_context_stack, align 8
  store ptr %20, ptr %9, align 8
  store ptr %9, ptr @error_context_stack, align 8
  %21 = getelementptr inbounds nuw i8, ptr %11, i64 283
  store i8 1, ptr %21, align 1
  %.not = icmp eq ptr %1, null
  br i1 %.not, label %25, label %22

22:                                               ; preds = %15
  %23 = getelementptr inbounds nuw i8, ptr %1, i64 4
  %24 = load i32, ptr %23, align 4
  br label %25

25:                                               ; preds = %15, %22
  %26 = phi i32 [ %24, %22 ], [ 0, %15 ]
  %27 = getelementptr inbounds nuw i8, ptr %11, i64 296
  store i32 %26, ptr %27, align 8
  %28 = getelementptr inbounds nuw i8, ptr %11, i64 288
  store i64 %2, ptr %28, align 8
  %29 = getelementptr inbounds nuw i8, ptr %11, i64 300
  store i8 0, ptr %29, align 4
  call void %13(ptr noundef nonnull %11, ptr noundef %1, i64 noundef %2, i1 noundef zeroext %3, ptr noundef %4, i64 noundef %5, ptr noundef %6) #10
  %30 = load ptr, ptr %9, align 8
  store ptr %30, ptr @error_context_stack, align 8
  br label %31

31:                                               ; preds = %7, %25
  call void @llvm.lifetime.end.p0(i64 24, ptr nonnull %9) #10
  call void @llvm.lifetime.end.p0(i64 24, ptr nonnull %8) #10
  ret void
}